 conserve

 Timestamp is 64172b90 (Sun Mar 19 10:34:40 2023)

 Preferred load address is 1c000000

 Start         Length     Name                   Class
 0001:00000000 0000abc8H .text                   CODE
 0002:00000000 00000a88H .rdata                  DATA
 0002:00000a90 000000a5H .edata                  DATA
 0003:00000000 00000004H .CRT$XCA                DATA
 0003:00000008 00000004H .CRT$XCZ                DATA
 0003:00000010 00000004H .CRT$XIA                DATA
 0003:00000018 00000004H .CRT$XIZ                DATA
 0003:00000020 000003fcH .data                   DATA
 0003:0000041c 0000000cH .bss                    DATA
 0004:00000000 000013b0H .pdata                  DATA
 0005:00000000 0000008cH .idata$2                DATA
 0005:0000008c 00000014H .idata$3                DATA
 0005:000000a0 0000015cH .idata$4                DATA
 0005:000001fc 000001ccH .idata$4toc             DATA
 0005:000003c8 0000015cH .idata$5                DATA
 0005:00000524 0000054cH .idata$6                DATA
 0006:00000000 00000140H .rsrc$01                DATA
 0006:00000140 000006bcH .rsrc$02                DATA

  Address         Publics by Value              Rva+Base   Lib:Object

 0001:00000000       ..?UnicodeOk@@YAHXZ        1c001000 f conserve.obj
 0001:000000bc       ..DllMain                  1c0010bc f conserve.obj
 0001:0000021c       ..DllGetClassObject        1c00121c f conserve.obj
 0001:00000368       ..DllCanUnloadNow          1c001368 f conserve.obj
 0001:000003ac       ..?SetRegKeyValue@@YAHPAD00@Z 1c0013ac f conserve.obj
 0001:0000059c       ..?AddRegNamedValue@@YAHPAD000@Z 1c00159c f conserve.obj
 0001:00000778       ..DllRegisterServer        1c001778 f conserve.obj
 0001:000009e0       ..DllUnregisterServer      1c0019e0 f conserve.obj
 0001:00000db4       ..??_GCServer@@QAAPAXI@Z   1c001db4 f conserve.obj
 0001:00000e14       ..??8@YAHABU_GUID@@0@Z     1c001e14 f conserve.obj
 0001:00000e70       ..??0CServer@@QAA@XZ       1c001e70 f server.obj
 0001:00000ed0       ..??1CServer@@QAA@XZ       1c001ed0 f server.obj
 0001:00000f08       ..?Lock@CServer@@QAAXXZ    1c001f08 f server.obj
 0001:00000fb4       ..?Unlock@CServer@@QAAXXZ  1c001fb4 f server.obj
 0001:00001060       ..?ObjectsUp@CServer@@QAAXXZ 1c002060 f server.obj
 0001:0000110c       ..?ObjectsDown@CServer@@QAAXXZ 1c00210c f server.obj
 0001:000011b8       ..?CanUnloadNow@CServer@@QAAJXZ 1c0021b8 f server.obj
 0001:00001298       ..??0CThreaded@@QAA@XZ     1c002298 f server.obj
 0001:00001314       ..?OwnThis@CThreaded@@UAAHXZ 1c002314 f server.obj
 0001:0000139c       ..?UnOwnThis@CThreaded@@UAAXXZ 1c00239c f server.obj
 0001:00001410       ..??1CThreaded@@QAA@XZ     1c002410 f server.obj
 0001:00001470       ..??0CFBall@@QAA@PAUIUnknown@@PAVCServer@@@Z 1c002470 f factory.obj
 0001:00001524       ..??1CFBall@@QAA@XZ        1c002524 f factory.obj
 0001:00001598       ..?QueryInterface@CFBall@@UAAJABU_GUID@@PAPAX@Z 1c002598 f factory.obj
 0001:000016ec       ..?AddRef@CFBall@@UAAKXZ   1c0026ec f factory.obj
 0001:000017a4       ..?Release@CFBall@@UAAKXZ  1c0027a4 f factory.obj
 0001:000018f8       ..??0CImpIClassFactory@CFBall@@QAA@PAV1@PAUIUnknown@@PAVCServer@@@Z 1c0028f8 f factory.obj
 0001:000019b4       ..??1CImpIClassFactory@CFBall@@QAA@XZ 1c0029b4 f factory.obj
 0001:00001a18       ..?QueryInterface@CImpIClassFactory@CFBall@@UAAJABU_GUID@@PAPAX@Z 1c002a18 f factory.obj
 0001:00001a8c       ..?AddRef@CImpIClassFactory@CFBall@@UAAKXZ 1c002a8c f factory.obj
 0001:00001af0       ..?Release@CImpIClassFactory@CFBall@@UAAKXZ 1c002af0 f factory.obj
 0001:00001b54       ..?CreateInstance@CImpIClassFactory@CFBall@@UAAJPAUIUnknown@@ABU_GUID@@PAPAX@Z 1c002b54 f factory.obj
 0001:00001d24       ..?LockServer@CImpIClassFactory@CFBall@@UAAJH@Z 1c002d24 f factory.obj
 0001:00001d98       ..??0IUnknown@@QAA@XZ      1c002d98 f factory.obj
 0001:00001dd8       ..??_GCFBall@@QAAPAXI@Z    1c002dd8 f factory.obj
 0001:00001e34       ..??0IClassFactory@@QAA@XZ 1c002e34 f factory.obj
 0001:00001e7c       ..??9@YAHABU_GUID@@0@Z     1c002e7c f factory.obj
 0001:00001ed0       ..??_GCOBall@@QAAPAXI@Z    1c002ed0 f factory.obj
 0001:00001f30       ..??0COEnumConnectionPoints@@QAA@PAUIUnknown@@@Z 1c002f30 f connect.obj
 0001:00001fbc       ..??1COEnumConnectionPoints@@QAA@XZ 1c002fbc f connect.obj
 0001:000020a4       ..?Init@COEnumConnectionPoints@@QAAJKPAPAUIConnectionPoint@@K@Z 1c0030a4 f connect.obj
 0001:000021d0       ..?QueryInterface@COEnumConnectionPoints@@UAAJABU_GUID@@PAPAX@Z 1c0031d0 f connect.obj
 0001:000022a8       ..?AddRef@COEnumConnectionPoints@@UAAKXZ 1c0032a8 f connect.obj
 0001:0000232c       ..?Release@COEnumConnectionPoints@@UAAKXZ 1c00332c f connect.obj
 0001:000023f4       ..?Next@COEnumConnectionPoints@@UAAJKPAPAUIConnectionPoint@@PAK@Z 1c0033f4 f connect.obj
 0001:000025b8       ..?Skip@COEnumConnectionPoints@@UAAJK@Z 1c0035b8 f connect.obj
 0001:00002640       ..?Reset@COEnumConnectionPoints@@UAAJXZ 1c003640 f connect.obj
 0001:0000267c       ..?Clone@COEnumConnectionPoints@@UAAJPAPAUIEnumConnectionPoints@@@Z 1c00367c f connect.obj
 0001:0000279c       ..??0COConnectionPoint@@QAA@PAUIUnknown@@@Z 1c00379c f connect.obj
 0001:00002850       ..??1COConnectionPoint@@QAA@XZ 1c003850 f connect.obj
 0001:00002960       ..?Init@COConnectionPoint@@QAAJABU_GUID@@@Z 1c003960 f connect.obj
 0001:00002a1c       ..?QueryInterface@COConnectionPoint@@UAAJABU_GUID@@PAPAX@Z 1c003a1c f connect.obj
 0001:00002af4       ..?AddRef@COConnectionPoint@@UAAKXZ 1c003af4 f connect.obj
 0001:00002bac       ..?Release@COConnectionPoint@@UAAKXZ 1c003bac f connect.obj
 0001:00002cdc       ..?GetSlot@COConnectionPoint@@AAAJPAI@Z 1c003cdc f connect.obj
 0001:00002efc       ..?FindSlot@COConnectionPoint@@AAAJKPAI@Z 1c003efc f connect.obj
 0001:00002fac       ..?GetConnectionInterface@COConnectionPoint@@UAAJPAU_GUID@@@Z 1c003fac f connect.obj
 0001:0000302c       ..?GetConnectionPointContainer@COConnectionPoint@@UAAJPAPAUIConnectionPointContainer@@@Z 1c00402c f connect.obj
 0001:000030ac       ..?Advise@COConnectionPoint@@UAAJPAUIUnknown@@PAK@Z 1c0040ac f connect.obj
 0001:0000325c       ..?Unadvise@COConnectionPoint@@UAAJK@Z 1c00425c f connect.obj
 0001:000033d0       ..?EnumConnections@COConnectionPoint@@UAAJPAPAUIEnumConnections@@@Z 1c0043d0 f connect.obj
 0001:00003668       ..??0COEnumConnections@@QAA@PAUIUnknown@@@Z 1c004668 f connect.obj
 0001:000036f4       ..??1COEnumConnections@@QAA@XZ 1c0046f4 f connect.obj
 0001:000037c4       ..?Init@COEnumConnections@@QAAJKPAUtagCONNECTDATA@@K@Z 1c0047c4 f connect.obj
 0001:00003904       ..?QueryInterface@COEnumConnections@@UAAJABU_GUID@@PAPAX@Z 1c004904 f connect.obj
 0001:000039dc       ..?AddRef@COEnumConnections@@UAAKXZ 1c0049dc f connect.obj
 0001:00003a60       ..?Release@COEnumConnections@@UAAKXZ 1c004a60 f connect.obj
 0001:00003b28       ..?Next@COEnumConnections@@UAAJKPAUtagCONNECTDATA@@PAK@Z 1c004b28 f connect.obj
 0001:00003d14       ..?Skip@COEnumConnections@@UAAJK@Z 1c004d14 f connect.obj
 0001:00003d9c       ..?Reset@COEnumConnections@@UAAJXZ 1c004d9c f connect.obj
 0001:00003dd8       ..?Clone@COEnumConnections@@UAAJPAPAUIEnumConnections@@@Z 1c004dd8 f connect.obj
 0001:00003ef8       ..??0IEnumConnectionPoints@@QAA@XZ 1c004ef8 f connect.obj
 0001:00003f40       ..??_GCOEnumConnectionPoints@@QAAPAXI@Z 1c004f40 f connect.obj
 0001:00003f9c       ..??0IConnectionPoint@@QAA@XZ 1c004f9c f connect.obj
 0001:00003fe4       ..??_GCOConnectionPoint@@QAAPAXI@Z 1c004fe4 f connect.obj
 0001:00004040       ..??0IEnumConnections@@QAA@XZ 1c005040 f connect.obj
 0001:00004088       ..??_GCOEnumConnections@@QAAPAXI@Z 1c005088 f connect.obj
 0001:000040e4       ..?Clear@CXForm@@QAAXXZ    1c0050e4 f ball.obj
 0001:000041ac       ..?Scale@CXForm@@QAAXHH@Z  1c0051ac f ball.obj
 0001:00004248       ..?Trans@CXForm@@QAAXHH@Z  1c005248 f ball.obj
 0001:000042a4       ..?Point@CXForm@@QAAXPAUtagPOINT@@@Z 1c0052a4 f ball.obj
 0001:00004344       ..??0COBall@@QAA@PAUIUnknown@@PAVCServer@@@Z 1c005344 f ball.obj
 0001:0000444c       ..??1COBall@@QAA@XZ        1c00544c f ball.obj
 0001:00004560       ..?Init@COBall@@QAAJXZ     1c005560 f ball.obj
 0001:0000465c       ..?QueryInterface@COBall@@UAAJABU_GUID@@PAPAX@Z 1c00565c f ball.obj
 0001:00004778       ..?AddRef@COBall@@UAAKXZ   1c005778 f ball.obj
 0001:00004830       ..?Release@COBall@@UAAKXZ  1c005830 f ball.obj
 0001:00004984       ..?NotifySinks@COBall@@AAAJK@Z 1c005984 f ball.obj
 0001:00004ccc       ..??0CImpIConnectionPointContainer@COBall@@QAA@PAV1@PAUIUnknown@@@Z 1c005ccc f ball.obj
 0001:00004d74       ..??1CImpIConnectionPointContainer@COBall@@QAA@XZ 1c005d74 f ball.obj
 0001:00004dd8       ..?QueryInterface@CImpIConnectionPointContainer@COBall@@UAAJABU_GUID@@PAPAX@Z 1c005dd8 f ball.obj
 0001:00004e4c       ..?AddRef@CImpIConnectionPointContainer@COBall@@UAAKXZ 1c005e4c f ball.obj
 0001:00004eb0       ..?Release@CImpIConnectionPointContainer@COBall@@UAAKXZ 1c005eb0 f ball.obj
 0001:00004f14       ..?FindConnectionPoint@CImpIConnectionPointContainer@COBall@@UAAJABU_GUID@@PAPAUIConnectionPoint@@@Z 1c005f14 f ball.obj
 0001:00005048       ..?EnumConnectionPoints@CImpIConnectionPointContainer@COBall@@UAAJPAPAUIEnumConnectionPoints@@@Z 1c006048 f ball.obj
 0001:00005218       ..??0CImpIBall@COBall@@QAA@PAV1@PAUIUnknown@@@Z 1c006218 f ball.obj
 0001:00005514       ..??1CImpIBall@COBall@@QAA@XZ 1c006514 f ball.obj
 0001:000055a8       ..?GetDimensions@CImpIBall@COBall@@AAAXPAUtagPOINT@@@Z 1c0065a8 f ball.obj
 0001:000055f0       ..?SetDimensions@CImpIBall@COBall@@AAAXHH@Z 1c0065f0 f ball.obj
 0001:00005634       ..?GetDirection@CImpIBall@COBall@@AAAXPAUtagPOINT@@@Z 1c006634 f ball.obj
 0001:0000567c       ..?SetDirection@CImpIBall@COBall@@AAAXHH@Z 1c00667c f ball.obj
 0001:000056c0       ..?GetPosition@CImpIBall@COBall@@AAAXPAUtagPOINT@@@Z 1c0066c0 f ball.obj
 0001:00005738       ..?SetPosition@CImpIBall@COBall@@AAAXHH@Z 1c006738 f ball.obj
 0001:00005788       ..?CheckBounce@CImpIBall@COBall@@AAAKXZ 1c006788 f ball.obj
 0001:00005a28       ..?FindThread@CImpIBall@COBall@@AAAXXZ 1c006a28 f ball.obj
 0001:00005b58       ..?QueryInterface@CImpIBall@COBall@@UAAJABU_GUID@@PAPAX@Z 1c006b58 f ball.obj
 0001:00005bcc       ..?AddRef@CImpIBall@COBall@@UAAKXZ 1c006bcc f ball.obj
 0001:00005c30       ..?Release@CImpIBall@COBall@@UAAKXZ 1c006c30 f ball.obj
 0001:00005c94       ..?Reset@CImpIBall@COBall@@UAAJPAUtagRECT@@F@Z 1c006c94 f ball.obj
 0001:00005e80       ..?Move@CImpIBall@COBall@@UAAHH@Z 1c006e80 f ball.obj
 0001:00005fe4       ..?GetBall@CImpIBall@COBall@@UAAJPAUtagPOINT@@0PAK@Z 1c006fe4 f ball.obj
 0001:0000610c       ..??0IConnectionPointContainer@@QAA@XZ 1c00710c f ball.obj
 0001:00006154       ..??0CXForm@@QAA@XZ        1c007154 f ball.obj
 0001:0000618c       ..??0CBallThread@@QAA@XZ   1c00718c f ball.obj
 0001:000061c4       ..??0IBall@@QAA@XZ         1c0071c4 f ball.obj
 0001:0000620c       ..??_H@YAXPAXIHP6AX0@Z@Z   1c00720c f ball.obj
 0001:00006294       ..??_I@YAXPAXIHP6AX0@Z@Z   1c007294 f ball.obj
 0001:0000632c       ..??1CXForm@@QAA@XZ        1c00732c f ball.obj
 0001:00006354       ..??1CBallThread@@QAA@XZ   1c007354 f ball.obj
 0001:0000637c       .._CRT_INIT                1c00737c f msvcrt:crtdll.obj
 0001:000064f8       .._DllMainCRTStartup       1c0074f8 f msvcrt:crtdll.obj
 0001:0000664c       ..??2@YAPAXI@Z             1c00764c f msvcrt:MSVCRT40.dll
 0001:00006664       ..??3@YAXPAX@Z             1c007664 f msvcrt:MSVCRT40.dll
 0001:0000667c       ..memcmp                   1c00767c f msvcrt:MSVCRT40.dll
 0001:00006694       .._purecall                1c007694 f msvcrt:MSVCRT40.dll
 0001:000066ac       ..memset                   1c0076ac f msvcrt:MSVCRT40.dll
 0001:000066c8       ..__restgpr_All            1c0076c8 f msvcrt:restgpr.obj
 0001:000066fc       ..__restgpr_14             1c0076fc   msvcrt:restgpr.obj
 0001:00006700       ..__restgpr_15             1c007700   msvcrt:restgpr.obj
 0001:00006704       ..__restgpr_16             1c007704   msvcrt:restgpr.obj
 0001:00006708       ..__restgpr_17             1c007708   msvcrt:restgpr.obj
 0001:0000670c       ..__restgpr_18             1c00770c   msvcrt:restgpr.obj
 0001:00006710       ..__restgpr_19             1c007710   msvcrt:restgpr.obj
 0001:00006714       ..__restgpr_20             1c007714   msvcrt:restgpr.obj
 0001:00006718       ..__restgpr_21             1c007718   msvcrt:restgpr.obj
 0001:0000671c       ..__restgpr_22             1c00771c   msvcrt:restgpr.obj
 0001:00006720       ..__restgpr_23             1c007720   msvcrt:restgpr.obj
 0001:00006724       ..__restgpr_24             1c007724   msvcrt:restgpr.obj
 0001:00006728       ..__restgpr_25             1c007728   msvcrt:restgpr.obj
 0001:0000672c       ..__restgpr_26             1c00772c   msvcrt:restgpr.obj
 0001:00006730       ..__restgpr_27             1c007730   msvcrt:restgpr.obj
 0001:00006734       ..__restgpr_28             1c007734   msvcrt:restgpr.obj
 0001:00006738       ..__restgpr_29             1c007738   msvcrt:restgpr.obj
 0001:0000673c       ..__restgpr_30             1c00773c   msvcrt:restgpr.obj
 0001:00006740       ..__restgpr_31             1c007740   msvcrt:restgpr.obj
 0001:00006748       ..free                     1c007748 f msvcrt:MSVCRT40.dll
 0001:00006760       .._initterm                1c007760 f msvcrt:MSVCRT40.dll
 0001:00006778       .._onexit                  1c007778 f msvcrt:atonexit.obj
 0001:000067e0       ..atexit                   1c0077e0 f msvcrt:atonexit.obj
 0001:00006810       ..malloc                   1c007810 f msvcrt:MSVCRT40.dll
 0001:00006828       ..__savegpr_All            1c007828 f msvcrt:savegpr.obj
 0001:0000685c       ..__savegpr_14             1c00785c   msvcrt:savegpr.obj
 0001:00006860       ..__savegpr_15             1c007860   msvcrt:savegpr.obj
 0001:00006864       ..__savegpr_16             1c007864   msvcrt:savegpr.obj
 0001:00006868       ..__savegpr_17             1c007868   msvcrt:savegpr.obj
 0001:0000686c       ..__savegpr_18             1c00786c   msvcrt:savegpr.obj
 0001:00006870       ..__savegpr_19             1c007870   msvcrt:savegpr.obj
 0001:00006874       ..__savegpr_20             1c007874   msvcrt:savegpr.obj
 0001:00006878       ..__savegpr_21             1c007878   msvcrt:savegpr.obj
 0001:0000687c       ..__savegpr_22             1c00787c   msvcrt:savegpr.obj
 0001:00006880       ..__savegpr_23             1c007880   msvcrt:savegpr.obj
 0001:00006884       ..__savegpr_24             1c007884   msvcrt:savegpr.obj
 0001:00006888       ..__savegpr_25             1c007888   msvcrt:savegpr.obj
 0001:0000688c       ..__savegpr_26             1c00788c   msvcrt:savegpr.obj
 0001:00006890       ..__savegpr_27             1c007890   msvcrt:savegpr.obj
 0001:00006894       ..__savegpr_28             1c007894   msvcrt:savegpr.obj
 0001:00006898       ..__savegpr_29             1c007898   msvcrt:savegpr.obj
 0001:0000689c       ..__savegpr_30             1c00789c   msvcrt:savegpr.obj
 0001:000068a0       ..__savegpr_31             1c0078a0   msvcrt:savegpr.obj
 0001:000068a8       ..__dllonexit              1c0078a8 f msvcrt:MSVCRT40.dll
 0001:000068c0       ..GetLastError             1c0078c0 f kernel32:KERNEL32.dll
 0001:000068d8       ..lstrlenA                 1c0078d8 f kernel32:KERNEL32.dll
 0001:000068f0       ..lstrcatA                 1c0078f0 f kernel32:KERNEL32.dll
 0001:00006908       ..lstrcpyA                 1c007908 f kernel32:KERNEL32.dll
 0001:00006920       ..GetModuleFileNameA       1c007920 f kernel32:KERNEL32.dll
 0001:00006938       ..CreateMutexA             1c007938 f kernel32:KERNEL32.dll
 0001:00006950       ..WaitForSingleObject      1c007950 f kernel32:KERNEL32.dll
 0001:00006968       ..ReleaseMutex             1c007968 f kernel32:KERNEL32.dll
 0001:00006980       ..CloseHandle              1c007980 f kernel32:KERNEL32.dll
 0001:00006998       ..GetCurrentThreadId       1c007998 f kernel32:KERNEL32.dll
 0001:000069b0       ..GetUserNameA             1c0079b0 f advapi32:ADVAPI32.dll
 0001:000069c8       ..RegCloseKey              1c0079c8 f advapi32:ADVAPI32.dll
 0001:000069e0       ..RegSetValueExA           1c0079e0 f advapi32:ADVAPI32.dll
 0001:000069f8       ..RegCreateKeyExA          1c0079f8 f advapi32:ADVAPI32.dll
 0001:00006a10       ..RegOpenKeyExA            1c007a10 f advapi32:ADVAPI32.dll
 0001:00006a28       ..RegDeleteKeyA            1c007a28 f advapi32:ADVAPI32.dll
 0001:00006a40       ..wsprintfA                1c007a40 f user32:USER32.dll
 0001:00006a58       ..?UcToAnsi@@YAJPAGPADH@Z  1c007a58 f apputil:apputil.obj
 0001:00006b68       ..A_StringFromGUID2        1c007b68 f apputil:apputil.obj
 0001:00006d1c       ..A_WriteFmtUserTypeStg    1c007d1c f apputil:apputil.obj
 0001:00006dec       ..A_StgIsStorageFile       1c007dec f apputil:apputil.obj
 0001:00006ea8       ..A_StgCreateDocfile       1c007ea8 f apputil:apputil.obj
 0001:00006f98       ..A_StgOpenStorage         1c007f98 f apputil:apputil.obj
 0001:00007098       ..?lRandom@@YAKXZ          1c008098 f apputil:apputil.obj
 0001:000070f0       ..?CreateColorScalePalette@@YAPAXPAXH@Z 1c0080f0 f apputil:apputil.obj
 0001:00007548       ..?PaintWindow@@YAXPAXH@Z  1c008548 f apputil:apputil.obj
 0001:00007b6c       ..?FileExist@@YAHPAD@Z     1c008b6c f apputil:apputil.obj
 0001:00007c2c       ..?MakeFamilyPath@@YAHPAXPAD1@Z 1c008c2c f apputil:apputil.obj
 0001:00007dac       ..?CmdExec@@YAHPAD@Z       1c008dac f apputil:apputil.obj
 0001:00007ec8       ..?ReadMe@@YAXPAX0@Z       1c008ec8 f apputil:apputil.obj
 0001:0000802c       ..?ReadMeFile@@YAXPAXPAD@Z 1c00902c f apputil:apputil.obj
 0001:0000816c       ..?ReadSource@@YAXPAXPAUtagOFNA@@@Z 1c00916c f apputil:apputil.obj
 0001:000082f4       ..?OutputDebugFmt@@YAXPADZZ 1c0092f4 f apputil:apputil.obj
 0001:000083a4       ..?GetErrorMsg@@YAHJPADI@Z 1c0093a4 f apputil:apputil.obj
 0001:000084c8       ..WindowProc               1c0094c8 f apputil:apputil.obj
 0001:000086c8       ..?Create@CVirWindow@@QAAPAXPAD0KHHHHPAX11@Z 1c0096c8 f apputil:apputil.obj
 0001:00008790       ..DialogProc               1c009790 f apputil:apputil.obj
 0001:000088c8       ..?ShowDialog@CVirDialog@@UAAHPAXPAD0@Z 1c0098c8 f apputil:apputil.obj
 0001:0000895c       ..?DialogProc@CAboutBox@@UAAHPAXIIJ@Z 1c00995c f apputil:apputil.obj
 0001:00008adc       ..?Init@CMsgBox@@QAAHPAX0@Z 1c009adc f apputil:apputil.obj
 0001:00008b2c       ..?Error@CMsgBox@@QAAHPAD@Z 1c009b2c f apputil:apputil.obj
 0001:00008bb0       ..?ErrorID@CMsgBox@@QAAHI@Z 1c009bb0 f apputil:apputil.obj
 0001:00008c84       ..?Note@CMsgBox@@QAAHPAD@Z 1c009c84 f apputil:apputil.obj
 0001:00008d08       ..?NoteID@CMsgBox@@QAAHI@Z 1c009d08 f apputil:apputil.obj
 0001:00008ddc       ..?NoteFmt@CMsgBox@@QAAHPADZZ 1c009ddc f apputil:apputil.obj
 0001:00008ec4       ..?NoteFmtID@CMsgBox@@QAAHIZZ 1c009ec4 f apputil:apputil.obj
 0001:00008ff0       ..?Create@CMsgLog@@QAAHPAX0H@Z 1c009ff0 f apputil:apputil.obj
 0001:000091c8       ..?Logging@CMsgLog@@QAAHH@Z 1c00a1c8 f apputil:apputil.obj
 0001:00009214       ..?Msg@CMsgLog@@QAAHPAD@Z  1c00a214 f apputil:apputil.obj
 0001:00009378       ..?MsgFmt@CMsgLog@@QAAHPADZZ 1c00a378 f apputil:apputil.obj
 0001:00009538       ..?MsgID@CMsgLog@@QAAHH@Z  1c00a538 f apputil:apputil.obj
 0001:000095d8       ..?MsgFmtID@CMsgLog@@QAAHHZZ 1c00a5d8 f apputil:apputil.obj
 0001:000096d4       ..?Resize@CMsgLog@@QAAHHH@Z 1c00a6d4 f apputil:apputil.obj
 0001:00009770       ..?Clear@CMsgLog@@QAAHXZ   1c00a770 f apputil:apputil.obj
 0001:000097e0       ..?Copy@CMsgLog@@QAAHXZ    1c00a7e0 f apputil:apputil.obj
 0001:00009b58       ..?CreateServerLog@CSendLog@@QAAHPAX0H@Z 1c00ab58 f apputil:apputil.obj
 0001:00009cfc       ..?SetClient@CSendLog@@QAAHPAX00@Z 1c00acfc f apputil:apputil.obj
 0001:00009d88       ..?LogToServer@CSendLog@@QAAHH@Z 1c00ad88 f apputil:apputil.obj
 0001:00009dd4       ..?Msg@CSendLog@@QAAHPAD@Z 1c00add4 f apputil:apputil.obj
 0001:00009ff4       ..?MsgFmt@CSendLog@@QAAHPADZZ 1c00aff4 f apputil:apputil.obj
 0001:0000a0b0       ..?MsgID@CSendLog@@QAAHH@Z 1c00b0b0 f apputil:apputil.obj
 0001:0000a150       ..?MsgFmtID@CSendLog@@QAAHHZZ 1c00b150 f apputil:apputil.obj
 0001:0000a24c       ..?Resize@CSendLog@@QAAHHH@Z 1c00b24c f apputil:apputil.obj
 0001:0000a2e8       ..?Clear@CSendLog@@QAAHXZ  1c00b2e8 f apputil:apputil.obj
 0001:0000a358       ..?Copy@CSendLog@@QAAHXZ   1c00b358 f apputil:apputil.obj
 0001:0000a6d0       ..CoTaskMemFree            1c00b6d0 f ole32:ole32.dll
 0001:0000a6e8       ..StringFromGUID2          1c00b6e8 f ole32:ole32.dll
 0001:0000a700       ..CoGetMalloc              1c00b700 f ole32:ole32.dll
 0001:0000a718       ..WriteFmtUserTypeStg      1c00b718 f ole32:ole32.dll
 0001:0000a730       ..StgIsStorageFile         1c00b730 f ole32:ole32.dll
 0001:0000a748       ..StgCreateDocfile         1c00b748 f ole32:ole32.dll
 0001:0000a760       ..StgOpenStorage           1c00b760 f ole32:ole32.dll
 0001:0000a778       .._splitpath               1c00b778 f msvcrt:MSVCRT40.dll
 0001:0000a790       ..WideCharToMultiByte      1c00b790 f kernel32:KERNEL32.dll
 0001:0000a7a8       ..MultiByteToWideChar      1c00b7a8 f kernel32:KERNEL32.dll
 0001:0000a7c0       ..GlobalFree               1c00b7c0 f kernel32:KERNEL32.dll
 0001:0000a7d8       ..GlobalUnlock             1c00b7d8 f kernel32:KERNEL32.dll
 0001:0000a7f0       ..GlobalLock               1c00b7f0 f kernel32:KERNEL32.dll
 0001:0000a808       ..GlobalAlloc              1c00b808 f kernel32:KERNEL32.dll
 0001:0000a820       ..CreateFileA              1c00b820 f kernel32:KERNEL32.dll
 0001:0000a838       ..CreateProcessA           1c00b838 f kernel32:KERNEL32.dll
 0001:0000a850       ..OutputDebugStringA       1c00b850 f kernel32:KERNEL32.dll
 0001:0000a868       ..FormatMessageA           1c00b868 f kernel32:KERNEL32.dll
 0001:0000a880       ..EndPaint                 1c00b880 f user32:USER32.dll
 0001:0000a898       ..FillRect                 1c00b898 f user32:USER32.dll
 0001:0000a8b0       ..SetRect                  1c00b8b0 f user32:USER32.dll
 0001:0000a8c8       ..GetClientRect            1c00b8c8 f user32:USER32.dll
 0001:0000a8e0       ..BeginPaint               1c00b8e0 f user32:USER32.dll
 0001:0000a8f8       ..MessageBoxA              1c00b8f8 f user32:USER32.dll
 0001:0000a910       ..wvsprintfA               1c00b910 f user32:USER32.dll
 0001:0000a928       ..DefWindowProcA           1c00b928 f user32:USER32.dll
 0001:0000a940       ..SetWindowLongA           1c00b940 f user32:USER32.dll
 0001:0000a958       ..GetWindowLongA           1c00b958 f user32:USER32.dll
 0001:0000a970       ..CreateWindowExA          1c00b970 f user32:USER32.dll
 0001:0000a988       ..DialogBoxParamA          1c00b988 f user32:USER32.dll
 0001:0000a9a0       ..InvalidateRect           1c00b9a0 f user32:USER32.dll
 0001:0000a9b8       ..EndDialog                1c00b9b8 f user32:USER32.dll
 0001:0000a9d0       ..GetDlgItem               1c00b9d0 f user32:USER32.dll
 0001:0000a9e8       ..SetFocus                 1c00b9e8 f user32:USER32.dll
 0001:0000aa00       ..LoadStringA              1c00ba00 f user32:USER32.dll
 0001:0000aa18       ..IsWindow                 1c00ba18 f user32:USER32.dll
 0001:0000aa30       ..SendMessageA             1c00ba30 f user32:USER32.dll
 0001:0000aa48       ..MoveWindow               1c00ba48 f user32:USER32.dll
 0001:0000aa60       ..CloseClipboard           1c00ba60 f user32:USER32.dll
 0001:0000aa78       ..SetClipboardData         1c00ba78 f user32:USER32.dll
 0001:0000aa90       ..EmptyClipboard           1c00ba90 f user32:USER32.dll
 0001:0000aaa8       ..OpenClipboard            1c00baa8 f user32:USER32.dll
 0001:0000aac0       ..CreatePalette            1c00bac0 f gdi32:GDI32.dll
 0001:0000aad8       ..GetDeviceCaps            1c00bad8 f gdi32:GDI32.dll
 0001:0000aaf0       ..DeleteObject             1c00baf0 f gdi32:GDI32.dll
 0001:0000ab08       ..CreateSolidBrush         1c00bb08 f gdi32:GDI32.dll
 0001:0000ab20       ..SetViewportOrgEx         1c00bb20 f gdi32:GDI32.dll
 0001:0000ab38       ..SetViewportExtEx         1c00bb38 f gdi32:GDI32.dll
 0001:0000ab50       ..SetWindowExtEx           1c00bb50 f gdi32:GDI32.dll
 0001:0000ab68       ..RealizePalette           1c00bb68 f gdi32:GDI32.dll
 0001:0000ab80       ..SelectPalette            1c00bb80 f gdi32:GDI32.dll
 0001:0000ab98       ..SetMapMode               1c00bb98 f gdi32:GDI32.dll
 0001:0000abb0       ..GetOpenFileNameA         1c00bbb0 f comdlg32:comdlg32.dll
 0002:00000058       IID_IBall                  1c00c058   conserve.obj
 0002:00000068       CLSID_DllBall              1c00c068   conserve.obj
 0002:00000078       IID_IBallSink              1c00c078   conserve.obj
 0002:00000088       CLSID_DllSndBall           1c00c088   conserve.obj
 0002:00000098       ?UnicodeOk@@YAHXZ          1c00c098   conserve.obj
 0002:000000a0       DllMain                    1c00c0a0   conserve.obj
 0002:000000a8       DllGetClassObject          1c00c0a8   conserve.obj
 0002:000000b0       DllCanUnloadNow            1c00c0b0   conserve.obj
 0002:000000b8       ?SetRegKeyValue@@YAHPAD00@Z 1c00c0b8   conserve.obj
 0002:000000c0       ?AddRegNamedValue@@YAHPAD000@Z 1c00c0c0   conserve.obj
 0002:000000c8       DllRegisterServer          1c00c0c8   conserve.obj
 0002:000000d0       DllUnregisterServer        1c00c0d0   conserve.obj
 0002:000000d8       ??_GCServer@@QAAPAXI@Z     1c00c0d8   conserve.obj
 0002:000000e0       ??8@YAHABU_GUID@@0@Z       1c00c0e0   conserve.obj
 0002:000000e8       ?UnOwnThis@CThreaded@@UAAXXZ 1c00c0e8   server.obj
 0002:000000f0       ?OwnThis@CThreaded@@UAAHXZ 1c00c0f0   server.obj
 0002:000000f8       ??0CServer@@QAA@XZ         1c00c0f8   server.obj
 0002:00000100       ??1CServer@@QAA@XZ         1c00c100   server.obj
 0002:00000108       ?Lock@CServer@@QAAXXZ      1c00c108   server.obj
 0002:00000110       ?Unlock@CServer@@QAAXXZ    1c00c110   server.obj
 0002:00000118       ?ObjectsUp@CServer@@QAAXXZ 1c00c118   server.obj
 0002:00000120       ?ObjectsDown@CServer@@QAAXXZ 1c00c120   server.obj
 0002:00000128       ?CanUnloadNow@CServer@@QAAJXZ 1c00c128   server.obj
 0002:00000130       ??_7CServer@@6B@           1c00c130   server.obj
 0002:00000138       ??0CThreaded@@QAA@XZ       1c00c138   server.obj
 0002:00000140       ??_7CThreaded@@6B@         1c00c140   server.obj
 0002:00000148       ??1CThreaded@@QAA@XZ       1c00c148   server.obj
 0002:00000150       ??0CFBall@@QAA@PAUIUnknown@@PAVCServer@@@Z 1c00c150   factory.obj
 0002:00000158       ?QueryInterface@CFBall@@UAAJABU_GUID@@PAPAX@Z 1c00c158   factory.obj
 0002:00000160       ?AddRef@CFBall@@UAAKXZ     1c00c160   factory.obj
 0002:00000168       ?Release@CFBall@@UAAKXZ    1c00c168   factory.obj
 0002:00000170       ??1CFBall@@QAA@XZ          1c00c170   factory.obj
 0002:00000178       ??0CImpIClassFactory@CFBall@@QAA@PAV1@PAUIUnknown@@PAVCServer@@@Z 1c00c178   factory.obj
 0002:00000180       ?QueryInterface@CImpIClassFactory@CFBall@@UAAJABU_GUID@@PAPAX@Z 1c00c180   factory.obj
 0002:00000188       ?AddRef@CImpIClassFactory@CFBall@@UAAKXZ 1c00c188   factory.obj
 0002:00000190       ?Release@CImpIClassFactory@CFBall@@UAAKXZ 1c00c190   factory.obj
 0002:00000198       ?CreateInstance@CImpIClassFactory@CFBall@@UAAJPAUIUnknown@@ABU_GUID@@PAPAX@Z 1c00c198   factory.obj
 0002:000001a0       ?LockServer@CImpIClassFactory@CFBall@@UAAJH@Z 1c00c1a0   factory.obj
 0002:000001a8       ??1CImpIClassFactory@CFBall@@QAA@XZ 1c00c1a8   factory.obj
 0002:000001b0       ??_7CFBall@@6BCThreaded@@@ 1c00c1b0   factory.obj
 0002:000001b8       ??_7CFBall@@6BIUnknown@@@  1c00c1b8   factory.obj
 0002:000001c4       ??0IUnknown@@QAA@XZ        1c00c1c4   factory.obj
 0002:000001d0       ??_7IUnknown@@6B@          1c00c1d0   factory.obj
 0002:000001dc       ??_GCFBall@@QAAPAXI@Z      1c00c1dc   factory.obj
 0002:000001e8       ??_7CImpIClassFactory@CFBall@@6BCThreaded@@@ 1c00c1e8   factory.obj
 0002:000001f0       ??_7CImpIClassFactory@CFBall@@6BIClassFactory@@@ 1c00c1f0   factory.obj
 0002:00000204       ??0IClassFactory@@QAA@XZ   1c00c204   factory.obj
 0002:00000210       ??_7IClassFactory@@6B@     1c00c210   factory.obj
 0002:00000224       ??9@YAHABU_GUID@@0@Z       1c00c224   factory.obj
 0002:0000022c       ??_GCOBall@@QAAPAXI@Z      1c00c22c   factory.obj
 0002:00000238       ??0COEnumConnectionPoints@@QAA@PAUIUnknown@@@Z 1c00c238   connect.obj
 0002:00000240       ?QueryInterface@COEnumConnectionPoints@@UAAJABU_GUID@@PAPAX@Z 1c00c240   connect.obj
 0002:00000248       ?AddRef@COEnumConnectionPoints@@UAAKXZ 1c00c248   connect.obj
 0002:00000250       ?Release@COEnumConnectionPoints@@UAAKXZ 1c00c250   connect.obj
 0002:00000258       ?Next@COEnumConnectionPoints@@UAAJKPAPAUIConnectionPoint@@PAK@Z 1c00c258   connect.obj
 0002:00000260       ?Skip@COEnumConnectionPoints@@UAAJK@Z 1c00c260   connect.obj
 0002:00000268       ?Reset@COEnumConnectionPoints@@UAAJXZ 1c00c268   connect.obj
 0002:00000270       ?Clone@COEnumConnectionPoints@@UAAJPAPAUIEnumConnectionPoints@@@Z 1c00c270   connect.obj
 0002:00000278       ??1COEnumConnectionPoints@@QAA@XZ 1c00c278   connect.obj
 0002:00000280       ?Init@COEnumConnectionPoints@@QAAJKPAPAUIConnectionPoint@@K@Z 1c00c280   connect.obj
 0002:00000288       ??0COConnectionPoint@@QAA@PAUIUnknown@@@Z 1c00c288   connect.obj
 0002:00000290       ?QueryInterface@COConnectionPoint@@UAAJABU_GUID@@PAPAX@Z 1c00c290   connect.obj
 0002:00000298       ?AddRef@COConnectionPoint@@UAAKXZ 1c00c298   connect.obj
 0002:000002a0       ?Release@COConnectionPoint@@UAAKXZ 1c00c2a0   connect.obj
 0002:000002a8       ?GetConnectionInterface@COConnectionPoint@@UAAJPAU_GUID@@@Z 1c00c2a8   connect.obj
 0002:000002b0       ?GetConnectionPointContainer@COConnectionPoint@@UAAJPAPAUIConnectionPointContainer@@@Z 1c00c2b0   connect.obj
 0002:000002b8       ?Advise@COConnectionPoint@@UAAJPAUIUnknown@@PAK@Z 1c00c2b8   connect.obj
 0002:000002c0       ?Unadvise@COConnectionPoint@@UAAJK@Z 1c00c2c0   connect.obj
 0002:000002c8       ?EnumConnections@COConnectionPoint@@UAAJPAPAUIEnumConnections@@@Z 1c00c2c8   connect.obj
 0002:000002d0       ??1COConnectionPoint@@QAA@XZ 1c00c2d0   connect.obj
 0002:000002d8       ?Init@COConnectionPoint@@QAAJABU_GUID@@@Z 1c00c2d8   connect.obj
 0002:000002e0       ?GetSlot@COConnectionPoint@@AAAJPAI@Z 1c00c2e0   connect.obj
 0002:000002e8       ?FindSlot@COConnectionPoint@@AAAJKPAI@Z 1c00c2e8   connect.obj
 0002:000002f0       ??0COEnumConnections@@QAA@PAUIUnknown@@@Z 1c00c2f0   connect.obj
 0002:000002f8       ?QueryInterface@COEnumConnections@@UAAJABU_GUID@@PAPAX@Z 1c00c2f8   connect.obj
 0002:00000300       ?AddRef@COEnumConnections@@UAAKXZ 1c00c300   connect.obj
 0002:00000308       ?Release@COEnumConnections@@UAAKXZ 1c00c308   connect.obj
 0002:00000310       ?Next@COEnumConnections@@UAAJKPAUtagCONNECTDATA@@PAK@Z 1c00c310   connect.obj
 0002:00000318       ?Skip@COEnumConnections@@UAAJK@Z 1c00c318   connect.obj
 0002:00000320       ?Reset@COEnumConnections@@UAAJXZ 1c00c320   connect.obj
 0002:00000328       ?Clone@COEnumConnections@@UAAJPAPAUIEnumConnections@@@Z 1c00c328   connect.obj
 0002:00000330       ??1COEnumConnections@@QAA@XZ 1c00c330   connect.obj
 0002:00000338       ?Init@COEnumConnections@@QAAJKPAUtagCONNECTDATA@@K@Z 1c00c338   connect.obj
 0002:00000340       ??_7COEnumConnectionPoints@@6B@ 1c00c340   connect.obj
 0002:0000035c       ??0IEnumConnectionPoints@@QAA@XZ 1c00c35c   connect.obj
 0002:00000368       ??_7IEnumConnectionPoints@@6B@ 1c00c368   connect.obj
 0002:00000384       ??_GCOEnumConnectionPoints@@QAAPAXI@Z 1c00c384   connect.obj
 0002:00000390       ??_7COConnectionPoint@@6BCThreaded@@@ 1c00c390   connect.obj
 0002:00000398       ??_7COConnectionPoint@@6BIConnectionPoint@@@ 1c00c398   connect.obj
 0002:000003b8       ??0IConnectionPoint@@QAA@XZ 1c00c3b8   connect.obj
 0002:000003c0       ??_7IConnectionPoint@@6B@  1c00c3c0   connect.obj
 0002:000003e0       ??_GCOConnectionPoint@@QAAPAXI@Z 1c00c3e0   connect.obj
 0002:000003e8       ??_7COEnumConnections@@6B@ 1c00c3e8   connect.obj
 0002:00000404       ??0IEnumConnections@@QAA@XZ 1c00c404   connect.obj
 0002:00000410       ??_7IEnumConnections@@6B@  1c00c410   connect.obj
 0002:0000042c       ??_GCOEnumConnections@@QAAPAXI@Z 1c00c42c   connect.obj
 0002:00000438       ?Clear@CXForm@@QAAXXZ      1c00c438   ball.obj
 0002:00000440       ?Scale@CXForm@@QAAXHH@Z    1c00c440   ball.obj
 0002:00000448       ?Trans@CXForm@@QAAXHH@Z    1c00c448   ball.obj
 0002:00000450       ?Point@CXForm@@QAAXPAUtagPOINT@@@Z 1c00c450   ball.obj
 0002:00000458       ??0COBall@@QAA@PAUIUnknown@@PAVCServer@@@Z 1c00c458   ball.obj
 0002:00000460       ?QueryInterface@COBall@@UAAJABU_GUID@@PAPAX@Z 1c00c460   ball.obj
 0002:00000468       ?AddRef@COBall@@UAAKXZ     1c00c468   ball.obj
 0002:00000470       ?Release@COBall@@UAAKXZ    1c00c470   ball.obj
 0002:00000478       ??1COBall@@QAA@XZ          1c00c478   ball.obj
 0002:00000480       ?Init@COBall@@QAAJXZ       1c00c480   ball.obj
 0002:00000488       ?NotifySinks@COBall@@AAAJK@Z 1c00c488   ball.obj
 0002:00000490       ??0CImpIConnectionPointContainer@COBall@@QAA@PAV1@PAUIUnknown@@@Z 1c00c490   ball.obj
 0002:00000498       ?QueryInterface@CImpIConnectionPointContainer@COBall@@UAAJABU_GUID@@PAPAX@Z 1c00c498   ball.obj
 0002:000004a0       ?AddRef@CImpIConnectionPointContainer@COBall@@UAAKXZ 1c00c4a0   ball.obj
 0002:000004a8       ?Release@CImpIConnectionPointContainer@COBall@@UAAKXZ 1c00c4a8   ball.obj
 0002:000004b0       ?EnumConnectionPoints@CImpIConnectionPointContainer@COBall@@UAAJPAPAUIEnumConnectionPoints@@@Z 1c00c4b0   ball.obj
 0002:000004b8       ?FindConnectionPoint@CImpIConnectionPointContainer@COBall@@UAAJABU_GUID@@PAPAUIConnectionPoint@@@Z 1c00c4b8   ball.obj
 0002:000004c0       ??1CImpIConnectionPointContainer@COBall@@QAA@XZ 1c00c4c0   ball.obj
 0002:000004c8       ??0CImpIBall@COBall@@QAA@PAV1@PAUIUnknown@@@Z 1c00c4c8   ball.obj
 0002:000004d0       ?QueryInterface@CImpIBall@COBall@@UAAJABU_GUID@@PAPAX@Z 1c00c4d0   ball.obj
 0002:000004d8       ?AddRef@CImpIBall@COBall@@UAAKXZ 1c00c4d8   ball.obj
 0002:000004e0       ?Release@CImpIBall@COBall@@UAAKXZ 1c00c4e0   ball.obj
 0002:000004e8       ?Reset@CImpIBall@COBall@@UAAJPAUtagRECT@@F@Z 1c00c4e8   ball.obj
 0002:000004f0       ?Move@CImpIBall@COBall@@UAAHH@Z 1c00c4f0   ball.obj
 0002:000004f8       ?GetBall@CImpIBall@COBall@@UAAJPAUtagPOINT@@0PAK@Z 1c00c4f8   ball.obj
 0002:00000500       ??1CImpIBall@COBall@@QAA@XZ 1c00c500   ball.obj
 0002:00000508       ?GetDimensions@CImpIBall@COBall@@AAAXPAUtagPOINT@@@Z 1c00c508   ball.obj
 0002:00000510       ?SetDimensions@CImpIBall@COBall@@AAAXHH@Z 1c00c510   ball.obj
 0002:00000518       ?GetDirection@CImpIBall@COBall@@AAAXPAUtagPOINT@@@Z 1c00c518   ball.obj
 0002:00000520       ?SetDirection@CImpIBall@COBall@@AAAXHH@Z 1c00c520   ball.obj
 0002:00000528       ?GetPosition@CImpIBall@COBall@@AAAXPAUtagPOINT@@@Z 1c00c528   ball.obj
 0002:00000530       ?SetPosition@CImpIBall@COBall@@AAAXHH@Z 1c00c530   ball.obj
 0002:00000538       ?CheckBounce@CImpIBall@COBall@@AAAKXZ 1c00c538   ball.obj
 0002:00000540       ?FindThread@CImpIBall@COBall@@AAAXXZ 1c00c540   ball.obj
 0002:00000548       ??_7COBall@@6BCThreaded@@@ 1c00c548   ball.obj
 0002:00000550       ??_7COBall@@6BIUnknown@@@  1c00c550   ball.obj
 0002:00000560       ??_7CImpIConnectionPointContainer@COBall@@6BCThreaded@@@ 1c00c560   ball.obj
 0002:00000568       ??_7CImpIConnectionPointContainer@COBall@@6BIConnectionPointContainer@@@ 1c00c568   ball.obj
 0002:0000057c       ??0IConnectionPointContainer@@QAA@XZ 1c00c57c   ball.obj
 0002:00000588       ??_7IConnectionPointContainer@@6B@ 1c00c588   ball.obj
 0002:0000059c       ??0CBallThread@@QAA@XZ     1c00c59c   ball.obj
 0002:000005a8       ??_7CImpIBall@COBall@@6BCThreaded@@@ 1c00c5a8   ball.obj
 0002:000005b0       ??_7CImpIBall@COBall@@6BIBall@@@ 1c00c5b0   ball.obj
 0002:000005c8       ??0CXForm@@QAA@XZ          1c00c5c8   ball.obj
 0002:000005d0       ??0IBall@@QAA@XZ           1c00c5d0   ball.obj
 0002:000005d8       ??_7IBall@@6B@             1c00c5d8   ball.obj
 0002:000005f0       ??_H@YAXPAXIHP6AX0@Z@Z     1c00c5f0   ball.obj
 0002:000005f8       ??_I@YAXPAXIHP6AX0@Z@Z     1c00c5f8   ball.obj
 0002:00000600       ??1CBallThread@@QAA@XZ     1c00c600   ball.obj
 0002:00000608       ??1CXForm@@QAA@XZ          1c00c608   ball.obj
 0002:00000610       IID_IClassFactory          1c00c610   uuid:unknwn_i_guid1.obj
 0002:00000620       IID_IUnknown               1c00c620   uuid:unknwn_i_guid0.obj
 0002:00000630       IID_IEnumConnectionPoints  1c00c630   uuid:ocidl_i_guid2.obj
 0002:00000640       IID_IConnectionPoint       1c00c640   uuid:ocidl_i_guid1.obj
 0002:00000650       IID_IConnectionPointContainer 1c00c650   uuid:ocidl_i_guid3.obj
 0002:00000660       IID_IEnumConnections       1c00c660   uuid:ocidl_i_guid0.obj
 0002:00000670       _CRT_INIT                  1c00c670   msvcrt:crtdll.obj
 0002:00000678       _DllMainCRTStartup         1c00c678   msvcrt:crtdll.obj
 0002:00000680       ??2@YAPAXI@Z               1c00c680   msvcrt:MSVCRT40.dll
 0002:00000688       ??3@YAXPAX@Z               1c00c688   msvcrt:MSVCRT40.dll
 0002:00000690       memcmp                     1c00c690   msvcrt:MSVCRT40.dll
 0002:00000698       _purecall                  1c00c698   msvcrt:MSVCRT40.dll
 0002:000006a0       memset                     1c00c6a0   msvcrt:MSVCRT40.dll
 0002:000006a8       free                       1c00c6a8   msvcrt:MSVCRT40.dll
 0002:000006b0       _initterm                  1c00c6b0   msvcrt:MSVCRT40.dll
 0002:000006b8       _onexit                    1c00c6b8   msvcrt:atonexit.obj
 0002:000006c0       atexit                     1c00c6c0   msvcrt:atonexit.obj
 0002:000006c8       malloc                     1c00c6c8   msvcrt:MSVCRT40.dll
 0002:000006d0       __dllonexit                1c00c6d0   msvcrt:MSVCRT40.dll
 0002:000006d8       GetLastError               1c00c6d8   kernel32:KERNEL32.dll
 0002:000006e0       lstrlenA                   1c00c6e0   kernel32:KERNEL32.dll
 0002:000006e8       lstrcatA                   1c00c6e8   kernel32:KERNEL32.dll
 0002:000006f0       lstrcpyA                   1c00c6f0   kernel32:KERNEL32.dll
 0002:000006f8       GetModuleFileNameA         1c00c6f8   kernel32:KERNEL32.dll
 0002:00000700       CreateMutexA               1c00c700   kernel32:KERNEL32.dll
 0002:00000708       WaitForSingleObject        1c00c708   kernel32:KERNEL32.dll
 0002:00000710       ReleaseMutex               1c00c710   kernel32:KERNEL32.dll
 0002:00000718       CloseHandle                1c00c718   kernel32:KERNEL32.dll
 0002:00000720       GetCurrentThreadId         1c00c720   kernel32:KERNEL32.dll
 0002:00000728       GetUserNameA               1c00c728   advapi32:ADVAPI32.dll
 0002:00000730       RegCloseKey                1c00c730   advapi32:ADVAPI32.dll
 0002:00000738       RegSetValueExA             1c00c738   advapi32:ADVAPI32.dll
 0002:00000740       RegCreateKeyExA            1c00c740   advapi32:ADVAPI32.dll
 0002:00000748       RegOpenKeyExA              1c00c748   advapi32:ADVAPI32.dll
 0002:00000750       RegDeleteKeyA              1c00c750   advapi32:ADVAPI32.dll
 0002:00000758       wsprintfA                  1c00c758   user32:USER32.dll
 0002:00000760       ?UcToAnsi@@YAJPAGPADH@Z    1c00c760   apputil:apputil.obj
 0002:00000768       A_StringFromGUID2          1c00c768   apputil:apputil.obj
 0002:00000770       A_WriteFmtUserTypeStg      1c00c770   apputil:apputil.obj
 0002:00000778       A_StgIsStorageFile         1c00c778   apputil:apputil.obj
 0002:00000780       A_StgCreateDocfile         1c00c780   apputil:apputil.obj
 0002:00000788       A_StgOpenStorage           1c00c788   apputil:apputil.obj
 0002:00000790       ?lRandom@@YAKXZ            1c00c790   apputil:apputil.obj
 0002:00000798       ?CreateColorScalePalette@@YAPAXPAXH@Z 1c00c798   apputil:apputil.obj
 0002:000007a0       ?PaintWindow@@YAXPAXH@Z    1c00c7a0   apputil:apputil.obj
 0002:000007a8       ?FileExist@@YAHPAD@Z       1c00c7a8   apputil:apputil.obj
 0002:000007b0       ?MakeFamilyPath@@YAHPAXPAD1@Z 1c00c7b0   apputil:apputil.obj
 0002:000007b8       ?CmdExec@@YAHPAD@Z         1c00c7b8   apputil:apputil.obj
 0002:000007c0       ?ReadMe@@YAXPAX0@Z         1c00c7c0   apputil:apputil.obj
 0002:000007c8       ?ReadMeFile@@YAXPAXPAD@Z   1c00c7c8   apputil:apputil.obj
 0002:000007d0       ?ReadSource@@YAXPAXPAUtagOFNA@@@Z 1c00c7d0   apputil:apputil.obj
 0002:000007d8       ?OutputDebugFmt@@YAXPADZZ  1c00c7d8   apputil:apputil.obj
 0002:000007e0       ?GetErrorMsg@@YAHJPADI@Z   1c00c7e0   apputil:apputil.obj
 0002:000007e8       WindowProc                 1c00c7e8   apputil:apputil.obj
 0002:000007f0       ?Create@CVirWindow@@QAAPAXPAD0KHHHHPAX11@Z 1c00c7f0   apputil:apputil.obj
 0002:000007f8       DialogProc                 1c00c7f8   apputil:apputil.obj
 0002:00000800       ?ShowDialog@CVirDialog@@UAAHPAXPAD0@Z 1c00c800   apputil:apputil.obj
 0002:00000808       ?DialogProc@CAboutBox@@UAAHPAXIIJ@Z 1c00c808   apputil:apputil.obj
 0002:00000810       ?Init@CMsgBox@@QAAHPAX0@Z  1c00c810   apputil:apputil.obj
 0002:00000818       ?Error@CMsgBox@@QAAHPAD@Z  1c00c818   apputil:apputil.obj
 0002:00000820       ?ErrorID@CMsgBox@@QAAHI@Z  1c00c820   apputil:apputil.obj
 0002:00000828       ?Note@CMsgBox@@QAAHPAD@Z   1c00c828   apputil:apputil.obj
 0002:00000830       ?NoteID@CMsgBox@@QAAHI@Z   1c00c830   apputil:apputil.obj
 0002:00000838       ?NoteFmt@CMsgBox@@QAAHPADZZ 1c00c838   apputil:apputil.obj
 0002:00000840       ?NoteFmtID@CMsgBox@@QAAHIZZ 1c00c840   apputil:apputil.obj
 0002:00000848       ?Create@CMsgLog@@QAAHPAX0H@Z 1c00c848   apputil:apputil.obj
 0002:00000850       ?Logging@CMsgLog@@QAAHH@Z  1c00c850   apputil:apputil.obj
 0002:00000858       ?Msg@CMsgLog@@QAAHPAD@Z    1c00c858   apputil:apputil.obj
 0002:00000860       ?MsgFmt@CMsgLog@@QAAHPADZZ 1c00c860   apputil:apputil.obj
 0002:00000868       ?MsgID@CMsgLog@@QAAHH@Z    1c00c868   apputil:apputil.obj
 0002:00000870       ?MsgFmtID@CMsgLog@@QAAHHZZ 1c00c870   apputil:apputil.obj
 0002:00000878       ?Resize@CMsgLog@@QAAHHH@Z  1c00c878   apputil:apputil.obj
 0002:00000880       ?Clear@CMsgLog@@QAAHXZ     1c00c880   apputil:apputil.obj
 0002:00000888       ?Copy@CMsgLog@@QAAHXZ      1c00c888   apputil:apputil.obj
 0002:00000890       ?CreateServerLog@CSendLog@@QAAHPAX0H@Z 1c00c890   apputil:apputil.obj
 0002:00000898       ?SetClient@CSendLog@@QAAHPAX00@Z 1c00c898   apputil:apputil.obj
 0002:000008a0       ?LogToServer@CSendLog@@QAAHH@Z 1c00c8a0   apputil:apputil.obj
 0002:000008a8       ?Msg@CSendLog@@QAAHPAD@Z   1c00c8a8   apputil:apputil.obj
 0002:000008b0       ?MsgFmt@CSendLog@@QAAHPADZZ 1c00c8b0   apputil:apputil.obj
 0002:000008b8       ?MsgID@CSendLog@@QAAHH@Z   1c00c8b8   apputil:apputil.obj
 0002:000008c0       ?MsgFmtID@CSendLog@@QAAHHZZ 1c00c8c0   apputil:apputil.obj
 0002:000008c8       ?Resize@CSendLog@@QAAHHH@Z 1c00c8c8   apputil:apputil.obj
 0002:000008d0       ?Clear@CSendLog@@QAAHXZ    1c00c8d0   apputil:apputil.obj
 0002:000008d8       ?Copy@CSendLog@@QAAHXZ     1c00c8d8   apputil:apputil.obj
 0002:000008e0       CoTaskMemFree              1c00c8e0   ole32:ole32.dll
 0002:000008e8       StringFromGUID2            1c00c8e8   ole32:ole32.dll
 0002:000008f0       CoGetMalloc                1c00c8f0   ole32:ole32.dll
 0002:000008f8       WriteFmtUserTypeStg        1c00c8f8   ole32:ole32.dll
 0002:00000900       StgIsStorageFile           1c00c900   ole32:ole32.dll
 0002:00000908       StgCreateDocfile           1c00c908   ole32:ole32.dll
 0002:00000910       StgOpenStorage             1c00c910   ole32:ole32.dll
 0002:00000918       _splitpath                 1c00c918   msvcrt:MSVCRT40.dll
 0002:00000920       WideCharToMultiByte        1c00c920   kernel32:KERNEL32.dll
 0002:00000928       MultiByteToWideChar        1c00c928   kernel32:KERNEL32.dll
 0002:00000930       GlobalFree                 1c00c930   kernel32:KERNEL32.dll
 0002:00000938       GlobalUnlock               1c00c938   kernel32:KERNEL32.dll
 0002:00000940       GlobalLock                 1c00c940   kernel32:KERNEL32.dll
 0002:00000948       GlobalAlloc                1c00c948   kernel32:KERNEL32.dll
 0002:00000950       CreateFileA                1c00c950   kernel32:KERNEL32.dll
 0002:00000958       CreateProcessA             1c00c958   kernel32:KERNEL32.dll
 0002:00000960       OutputDebugStringA         1c00c960   kernel32:KERNEL32.dll
 0002:00000968       FormatMessageA             1c00c968   kernel32:KERNEL32.dll
 0002:00000970       EndPaint                   1c00c970   user32:USER32.dll
 0002:00000978       FillRect                   1c00c978   user32:USER32.dll
 0002:00000980       SetRect                    1c00c980   user32:USER32.dll
 0002:00000988       GetClientRect              1c00c988   user32:USER32.dll
 0002:00000990       BeginPaint                 1c00c990   user32:USER32.dll
 0002:00000998       MessageBoxA                1c00c998   user32:USER32.dll
 0002:000009a0       wvsprintfA                 1c00c9a0   user32:USER32.dll
 0002:000009a8       DefWindowProcA             1c00c9a8   user32:USER32.dll
 0002:000009b0       SetWindowLongA             1c00c9b0   user32:USER32.dll
 0002:000009b8       GetWindowLongA             1c00c9b8   user32:USER32.dll
 0002:000009c0       CreateWindowExA            1c00c9c0   user32:USER32.dll
 0002:000009c8       DialogBoxParamA            1c00c9c8   user32:USER32.dll
 0002:000009d0       InvalidateRect             1c00c9d0   user32:USER32.dll
 0002:000009d8       EndDialog                  1c00c9d8   user32:USER32.dll
 0002:000009e0       GetDlgItem                 1c00c9e0   user32:USER32.dll
 0002:000009e8       SetFocus                   1c00c9e8   user32:USER32.dll
 0002:000009f0       LoadStringA                1c00c9f0   user32:USER32.dll
 0002:000009f8       IsWindow                   1c00c9f8   user32:USER32.dll
 0002:00000a00       SendMessageA               1c00ca00   user32:USER32.dll
 0002:00000a08       MoveWindow                 1c00ca08   user32:USER32.dll
 0002:00000a10       CloseClipboard             1c00ca10   user32:USER32.dll
 0002:00000a18       SetClipboardData           1c00ca18   user32:USER32.dll
 0002:00000a20       EmptyClipboard             1c00ca20   user32:USER32.dll
 0002:00000a28       OpenClipboard              1c00ca28   user32:USER32.dll
 0002:00000a30       CreatePalette              1c00ca30   gdi32:GDI32.dll
 0002:00000a38       GetDeviceCaps              1c00ca38   gdi32:GDI32.dll
 0002:00000a40       DeleteObject               1c00ca40   gdi32:GDI32.dll
 0002:00000a48       CreateSolidBrush           1c00ca48   gdi32:GDI32.dll
 0002:00000a50       SetViewportOrgEx           1c00ca50   gdi32:GDI32.dll
 0002:00000a58       SetViewportExtEx           1c00ca58   gdi32:GDI32.dll
 0002:00000a60       SetWindowExtEx             1c00ca60   gdi32:GDI32.dll
 0002:00000a68       RealizePalette             1c00ca68   gdi32:GDI32.dll
 0002:00000a70       SelectPalette              1c00ca70   gdi32:GDI32.dll
 0002:00000a78       SetMapMode                 1c00ca78   gdi32:GDI32.dll
 0002:00000a80       GetOpenFileNameA           1c00ca80   comdlg32:comdlg32.dll
 0003:00000000       __xc_a                     1c00d000   msvcrt:cinitexe.obj
 0003:00000008       __xc_z                     1c00d008   msvcrt:cinitexe.obj
 0003:00000010       __xi_a                     1c00d010   msvcrt:cinitexe.obj
 0003:00000018       __xi_z                     1c00d018   msvcrt:cinitexe.obj
 0003:00000020       ?g_pServer@@3PAVCServer@@A 1c00d020   conserve.obj
 0003:0000041c       __onexitend                1c00d41c   <common>
 0003:00000420       __onexitbegin              1c00d420   <common>
 0003:00000424       _pRawDllMain               1c00d424   <common>
 0005:00000000       __IMPORT_DESCRIPTOR_MSVCRT40 1c010000   msvcrt:MSVCRT40.dll
 0005:00000014       __IMPORT_DESCRIPTOR_KERNEL32 1c010014   kernel32:KERNEL32.dll
 0005:00000028       __IMPORT_DESCRIPTOR_ADVAPI32 1c010028   advapi32:ADVAPI32.dll
 0005:0000003c       __IMPORT_DESCRIPTOR_USER32 1c01003c   user32:USER32.dll
 0005:00000050       __IMPORT_DESCRIPTOR_ole32  1c010050   ole32:ole32.dll
 0005:00000064       __IMPORT_DESCRIPTOR_GDI32  1c010064   gdi32:GDI32.dll
 0005:00000078       __IMPORT_DESCRIPTOR_comdlg32 1c010078   comdlg32:comdlg32.dll
 0005:0000008c       __NULL_IMPORT_DESCRIPTOR   1c01008c   msvcrt:MSVCRT40.dll
 0005:000003c8       __imp_GetUserNameA         1c0103c8   advapi32:ADVAPI32.dll
 0005:000003cc       __imp_RegCloseKey          1c0103cc   advapi32:ADVAPI32.dll
 0005:000003d0       __imp_RegSetValueExA       1c0103d0   advapi32:ADVAPI32.dll
 0005:000003d4       __imp_RegDeleteKeyA        1c0103d4   advapi32:ADVAPI32.dll
 0005:000003d8       __imp_RegCreateKeyExA      1c0103d8   advapi32:ADVAPI32.dll
 0005:000003dc       __imp_RegOpenKeyExA        1c0103dc   advapi32:ADVAPI32.dll
 0005:000003e0       \177ADVAPI32_NULL_THUNK_DATA 1c0103e0   advapi32:ADVAPI32.dll
 0005:000003e4       __imp_SetViewportOrgEx     1c0103e4   gdi32:GDI32.dll
 0005:000003e8       __imp_RealizePalette       1c0103e8   gdi32:GDI32.dll
 0005:000003ec       __imp_GetDeviceCaps        1c0103ec   gdi32:GDI32.dll
 0005:000003f0       __imp_SetViewportExtEx     1c0103f0   gdi32:GDI32.dll
 0005:000003f4       __imp_SetWindowExtEx       1c0103f4   gdi32:GDI32.dll
 0005:000003f8       __imp_SelectPalette        1c0103f8   gdi32:GDI32.dll
 0005:000003fc       __imp_SetMapMode           1c0103fc   gdi32:GDI32.dll
 0005:00000400       __imp_DeleteObject         1c010400   gdi32:GDI32.dll
 0005:00000404       __imp_CreateSolidBrush     1c010404   gdi32:GDI32.dll
 0005:00000408       __imp_CreatePalette        1c010408   gdi32:GDI32.dll
 0005:0000040c       \177GDI32_NULL_THUNK_DATA  1c01040c   gdi32:GDI32.dll
 0005:00000410       __imp_CreateMutexA         1c010410   kernel32:KERNEL32.dll
 0005:00000414       __imp_CloseHandle          1c010414   kernel32:KERNEL32.dll
 0005:00000418       __imp_GetCurrentThreadId   1c010418   kernel32:KERNEL32.dll
 0005:0000041c       __imp_WaitForSingleObject  1c01041c   kernel32:KERNEL32.dll
 0005:00000420       __imp_ReleaseMutex         1c010420   kernel32:KERNEL32.dll
 0005:00000424       __imp_GetModuleFileNameA   1c010424   kernel32:KERNEL32.dll
 0005:00000428       __imp_lstrcatA             1c010428   kernel32:KERNEL32.dll
 0005:0000042c       __imp_lstrlenA             1c01042c   kernel32:KERNEL32.dll
 0005:00000430       __imp_GetLastError         1c010430   kernel32:KERNEL32.dll
 0005:00000434       __imp_lstrcpyA             1c010434   kernel32:KERNEL32.dll
 0005:00000438       __imp_GlobalUnlock         1c010438   kernel32:KERNEL32.dll
 0005:0000043c       __imp_MultiByteToWideChar  1c01043c   kernel32:KERNEL32.dll
 0005:00000440       __imp_GlobalFree           1c010440   kernel32:KERNEL32.dll
 0005:00000444       __imp_WideCharToMultiByte  1c010444   kernel32:KERNEL32.dll
 0005:00000448       __imp_FormatMessageA       1c010448   kernel32:KERNEL32.dll
 0005:0000044c       __imp_OutputDebugStringA   1c01044c   kernel32:KERNEL32.dll
 0005:00000450       __imp_CreateProcessA       1c010450   kernel32:KERNEL32.dll
 0005:00000454       __imp_CreateFileA          1c010454   kernel32:KERNEL32.dll
 0005:00000458       __imp_GlobalAlloc          1c010458   kernel32:KERNEL32.dll
 0005:0000045c       __imp_GlobalLock           1c01045c   kernel32:KERNEL32.dll
 0005:00000460       \177KERNEL32_NULL_THUNK_DATA 1c010460   kernel32:KERNEL32.dll
 0005:00000464       __imp__splitpath           1c010464   msvcrt:MSVCRT40.dll
 0005:00000468       __imp__initterm            1c010468   msvcrt:MSVCRT40.dll
 0005:0000046c       __imp_memcmp               1c01046c   msvcrt:MSVCRT40.dll
 0005:00000470       __imp_??2@YAPAXI@Z         1c010470   msvcrt:MSVCRT40.dll
 0005:00000474       __imp___dllonexit          1c010474   msvcrt:MSVCRT40.dll
 0005:00000478       __imp_malloc               1c010478   msvcrt:MSVCRT40.dll
 0005:0000047c       __imp_free                 1c01047c   msvcrt:MSVCRT40.dll
 0005:00000480       __imp_memset               1c010480   msvcrt:MSVCRT40.dll
 0005:00000484       __imp__purecall            1c010484   msvcrt:MSVCRT40.dll
 0005:00000488       __imp__onexit              1c010488   msvcrt:MSVCRT40.dll
 0005:0000048c       __imp_??3@YAXPAX@Z         1c01048c   msvcrt:MSVCRT40.dll
 0005:00000490       \177MSVCRT40_NULL_THUNK_DATA 1c010490   msvcrt:MSVCRT40.dll
 0005:00000494       __imp_FillRect             1c010494   user32:USER32.dll
 0005:00000498       __imp_EndPaint             1c010498   user32:USER32.dll
 0005:0000049c       __imp_SetRect              1c01049c   user32:USER32.dll
 0005:000004a0       __imp_BeginPaint           1c0104a0   user32:USER32.dll
 0005:000004a4       __imp_MessageBoxA          1c0104a4   user32:USER32.dll
 0005:000004a8       __imp_wvsprintfA           1c0104a8   user32:USER32.dll
 0005:000004ac       __imp_DefWindowProcA       1c0104ac   user32:USER32.dll
 0005:000004b0       __imp_GetWindowLongA       1c0104b0   user32:USER32.dll
 0005:000004b4       __imp_CreateWindowExA      1c0104b4   user32:USER32.dll
 0005:000004b8       __imp_DialogBoxParamA      1c0104b8   user32:USER32.dll
 0005:000004bc       __imp_InvalidateRect       1c0104bc   user32:USER32.dll
 0005:000004c0       __imp_EndDialog            1c0104c0   user32:USER32.dll
 0005:000004c4       __imp_GetDlgItem           1c0104c4   user32:USER32.dll
 0005:000004c8       __imp_SetFocus             1c0104c8   user32:USER32.dll
 0005:000004cc       __imp_LoadStringA          1c0104cc   user32:USER32.dll
 0005:000004d0       __imp_IsWindow             1c0104d0   user32:USER32.dll
 0005:000004d4       __imp_SendMessageA         1c0104d4   user32:USER32.dll
 0005:000004d8       __imp_MoveWindow           1c0104d8   user32:USER32.dll
 0005:000004dc       __imp_CloseClipboard       1c0104dc   user32:USER32.dll
 0005:000004e0       __imp_SetClipboardData     1c0104e0   user32:USER32.dll
 0005:000004e4       __imp_EmptyClipboard       1c0104e4   user32:USER32.dll
 0005:000004e8       __imp_OpenClipboard        1c0104e8   user32:USER32.dll
 0005:000004ec       __imp_wsprintfA            1c0104ec   user32:USER32.dll
 0005:000004f0       __imp_GetClientRect        1c0104f0   user32:USER32.dll
 0005:000004f4       __imp_SetWindowLongA       1c0104f4   user32:USER32.dll
 0005:000004f8       \177USER32_NULL_THUNK_DATA 1c0104f8   user32:USER32.dll
 0005:000004fc       __imp_GetOpenFileNameA     1c0104fc   comdlg32:comdlg32.dll
 0005:00000500       \177comdlg32_NULL_THUNK_DATA 1c010500   comdlg32:comdlg32.dll
 0005:00000504       __imp_StgIsStorageFile     1c010504   ole32:ole32.dll
 0005:00000508       __imp_StgCreateDocfile     1c010508   ole32:ole32.dll
 0005:0000050c       __imp_StringFromGUID2      1c01050c   ole32:ole32.dll
 0005:00000510       __imp_CoTaskMemFree        1c010510   ole32:ole32.dll
 0005:00000514       __imp_StgOpenStorage       1c010514   ole32:ole32.dll
 0005:00000518       __imp_WriteFmtUserTypeStg  1c010518   ole32:ole32.dll
 0005:0000051c       __imp_CoGetMalloc          1c01051c   ole32:ole32.dll
 0005:00000520       \177ole32_NULL_THUNK_DATA  1c010520   ole32:ole32.dll
 0005:000081fc       .toc                       1c0181fc   <linker-defined>

 entry point at        0002:00000678

 Static symbols


 Offset   Rva+Base   Publics by TOC Offset

  8000    1c0101fc   ??_7COBall@@6BIUnknown@@@
  8004    1c010200   ??_7COBall@@6BCThreaded@@@
  8008    1c010204   IID_IBallSink
  800c    1c010208   IID_IConnectionPoint
  8010    1c01020c   IID_IUnknown
  8014    1c010210   IID_IBall
  8018    1c010214   IID_IConnectionPointContainer
  801c    1c010218   ??_7CImpIConnectionPointContainer@COBall@@6BIConnectionPointContainer@@@
  8020    1c01021c   ??_7CImpIConnectionPointContainer@COBall@@6BCThreaded@@@
  8024    1c010220   IID_IEnumConnectionPoints
  8028    1c010224   ??0CBallThread@@QAA@XZ
  802c    1c010228   ??_7CImpIBall@COBall@@6BIBall@@@
  8030    1c01022c   ??_7CImpIBall@COBall@@6BCThreaded@@@
  8034    1c010230   ??1CBallThread@@QAA@XZ
  8038    1c010234   __imp_GetCurrentThreadId
  803c    1c010238   ??_7IConnectionPointContainer@@6B@
  8040    1c01023c   ??_7IBall@@6B@
  8044    1c010240   ??_7COEnumConnectionPoints@@6B@
  8048    1c010244   ??_7COConnectionPoint@@6BIConnectionPoint@@@
  804c    1c010248   ??_7COConnectionPoint@@6BCThreaded@@@
  8050    1c01024c   IID_IEnumConnections
  8054    1c010250   ??_7COEnumConnections@@6B@
  8058    1c010254   ??_7IEnumConnectionPoints@@6B@
  805c    1c010258   ??_7IConnectionPoint@@6B@
  8060    1c01025c   ??_7IEnumConnections@@6B@
  8064    1c010260   ??_7CFBall@@6BIUnknown@@@
  8068    1c010264   ??_7CFBall@@6BCThreaded@@@
  806c    1c010268   IID_IClassFactory
  8070    1c01026c   ??_7CImpIClassFactory@CFBall@@6BIClassFactory@@@
  8074    1c010270   ??_7CImpIClassFactory@CFBall@@6BCThreaded@@@
  8078    1c010274   ??_7IUnknown@@6B@
  807c    1c010278   ??_7IClassFactory@@6B@
  8080    1c01027c   ??_7CServer@@6B@
  8084    1c010280   __imp_CreateMutexA
  8088    1c010284   ??_7CThreaded@@6B@
  808c    1c010288   __imp_WaitForSingleObject
  8090    1c01028c   __imp_ReleaseMutex
  8094    1c010290   __imp_CloseHandle
  8098    1c010294   __imp_GetUserNameA
  809c    1c010298   __imp_GetLastError
  80a0    1c01029c   ?g_pServer@@3PAVCServer@@A
  80a4    1c0102a0   CLSID_DllSndBall
  80a8    1c0102a4   __imp_lstrcpyA
  80b0    1c0102ac   __imp_lstrcatA
  80b4    1c0102b0   __imp_RegCreateKeyExA
  80b8    1c0102b4   __imp_RegSetValueExA
  80bc    1c0102b8   __imp_lstrlenA
  80c0    1c0102bc   __imp_RegCloseKey
  80c4    1c0102c0   __imp_RegOpenKeyExA
  80c8    1c0102c4   __imp_GetModuleFileNameA
  80cc    1c0102c8   __imp_RegDeleteKeyA
  80d0    1c0102cc   __imp_wsprintfA
  80d4    1c0102d0   __onexitbegin
  80d8    1c0102d4   __imp__onexit
  80dc    1c0102d8   __onexitend
  80e4    1c0102e0   __imp_malloc
  80e8    1c0102e4   __xc_a
  80ec    1c0102e8   __xc_z
  80f0    1c0102ec   __imp_free
  80f4    1c0102f0   _pRawDllMain
  80f8    1c0102f4   __imp_WideCharToMultiByte
  80fc    1c0102f8   __imp_CoGetMalloc
  8100    1c0102fc   __imp_StringFromGUID2
  8104    1c010300   __imp_CoTaskMemFree
  8108    1c010304   __imp_MultiByteToWideChar
  810c    1c010308   __imp_WriteFmtUserTypeStg
  8110    1c01030c   __imp_StgIsStorageFile
  8114    1c010310   __imp_StgCreateDocfile
  8118    1c010314   __imp_StgOpenStorage
  8120    1c01031c   __imp_GetDeviceCaps
  8124    1c010320   __imp_GlobalAlloc
  8128    1c010324   __imp_GlobalLock
  812c    1c010328   __imp_CreatePalette
  8130    1c01032c   __imp_GlobalUnlock
  8134    1c010330   __imp_GlobalFree
  8138    1c010334   __imp_BeginPaint
  813c    1c010338   __imp_GetClientRect
  8140    1c01033c   __imp_SetMapMode
  8144    1c010340   __imp_SelectPalette
  8148    1c010344   __imp_RealizePalette
  814c    1c010348   __imp_SetWindowExtEx
  8150    1c01034c   __imp_SetViewportExtEx
  8154    1c010350   __imp_SetViewportOrgEx
  8158    1c010354   __imp_CreateSolidBrush
  815c    1c010358   __imp_SetRect
  8160    1c01035c   __imp_FillRect
  8164    1c010360   __imp_DeleteObject
  8168    1c010364   __imp_EndPaint
  816c    1c010368   __imp_CreateFileA
  8170    1c01036c   __imp_CreateProcessA
  8174    1c010370   __imp_MessageBoxA
  8178    1c010374   __imp_wvsprintfA
  817c    1c010378   __imp_OutputDebugStringA
  8180    1c01037c   __imp_FormatMessageA
  8184    1c010380   __imp_GetWindowLongA
  8188    1c010384   __imp_SetWindowLongA
  818c    1c010388   __imp_DefWindowProcA
  8190    1c01038c   __imp_CreateWindowExA
  8194    1c010390   __imp_DialogBoxParamA
  8198    1c010394   DialogProc
  819c    1c010398   __imp_GetDlgItem
  81a0    1c01039c   __imp_SetFocus
  81a4    1c0103a0   __imp_EndDialog
  81a8    1c0103a4   __imp_InvalidateRect
  81ac    1c0103a8   __imp_LoadStringA
  81b0    1c0103ac   __imp_IsWindow
  81b4    1c0103b0   __imp_SendMessageA
  81b8    1c0103b4   __imp_MoveWindow
  81bc    1c0103b8   __imp_OpenClipboard
  81c0    1c0103bc   __imp_EmptyClipboard
  81c4    1c0103c0   __imp_SetClipboardData
  81c8    1c0103c4   __imp_CloseClipboard

